target datalayout = "e-m:e-p270:32:32-p271:32:32-p272:64:64-i64:64-i128:128-f80:128-n8:16:32:64-S128"
target triple = "x86_64-pc-linux-gnu"

%struct.JSValue = type { %union.JSValueUnion, i64 }
%union.JSValueUnion = type { double }
%struct.list_head = type { ptr, ptr }
%struct.JSSABHeader = type { i32, [0 x i64] }
%struct.JSWorkerMessagePipe = type { i32, %union.pthread_mutex_t, %struct.list_head, i32, i32 }
%union.pthread_mutex_t = type { %struct.__pthread_mutex_s }
%struct.__pthread_mutex_s = type { i32, i32, i32, i32, i32, i16, i16, %struct.__pthread_internal_list }
%struct.__pthread_internal_list = type { ptr, ptr }
%struct.JSWorkerData = type { ptr, ptr, ptr }
%struct.JSWorkerMessage = type { %struct.list_head, ptr, i64, ptr, i64 }

@js_worker_class_id = internal global i32 0, align 4

; Function Attrs: nounwind uwtable
define internal void @__list_add(ptr noundef %0, ptr noundef %1, ptr noundef %2) #0 {
  %4 = alloca ptr, align 8
  %5 = alloca ptr, align 8
  %6 = alloca ptr, align 8
  store ptr %0, ptr %4, align 8
  store ptr %1, ptr %5, align 8
  store ptr %2, ptr %6, align 8
  %7 = load ptr, ptr %4, align 8
  %8 = load ptr, ptr %5, align 8
  %9 = getelementptr inbounds %struct.list_head, ptr %8, i32 0, i32 1
  store ptr %7, ptr %9, align 8
  %10 = load ptr, ptr %5, align 8
  %11 = load ptr, ptr %4, align 8
  %12 = getelementptr inbounds %struct.list_head, ptr %11, i32 0, i32 0
  store ptr %10, ptr %12, align 8
  %13 = load ptr, ptr %6, align 8
  %14 = load ptr, ptr %4, align 8
  %15 = getelementptr inbounds %struct.list_head, ptr %14, i32 0, i32 1
  store ptr %13, ptr %15, align 8
  %16 = load ptr, ptr %4, align 8
  %17 = load ptr, ptr %6, align 8
  %18 = getelementptr inbounds %struct.list_head, ptr %17, i32 0, i32 0
  store ptr %16, ptr %18, align 8
  ret void
}

; Function Attrs: nounwind uwtable
define internal i32 @atomic_add_int(ptr noundef %0, i32 noundef %1) #0 {
  %3 = alloca ptr, align 8
  %4 = alloca i32, align 4
  %5 = alloca i32, align 4
  %6 = alloca i32, align 4
  store ptr %0, ptr %3, align 8
  store i32 %1, ptr %4, align 4
  %7 = load ptr, ptr %3, align 8
  %8 = load i32, ptr %4, align 4
  store i32 %8, ptr %5, align 4
  %9 = load i32, ptr %5, align 4
  %10 = atomicrmw add ptr %7, i32 %9 seq_cst, align 4
  store i32 %10, ptr %6, align 4
  %11 = load i32, ptr %6, align 4
  %12 = load i32, ptr %4, align 4
  %13 = add i32 %11, %12
  ret i32 %13
}

; Function Attrs: nounwind uwtable
define internal void @list_add_tail(ptr noundef %0, ptr noundef %1) #0 {
  %3 = alloca ptr, align 8
  %4 = alloca ptr, align 8
  store ptr %0, ptr %3, align 8
  store ptr %1, ptr %4, align 8
  %5 = load ptr, ptr %3, align 8
  %6 = load ptr, ptr %4, align 8
  %7 = getelementptr inbounds %struct.list_head, ptr %6, i32 0, i32 0
  %8 = load ptr, ptr %7, align 8
  %9 = load ptr, ptr %4, align 8
  call void @__list_add(ptr noundef %5, ptr noundef %8, ptr noundef %9)
  ret void
}

; Function Attrs: nounwind uwtable
define internal i32 @list_empty(ptr noundef %0) #0 {
  %2 = alloca ptr, align 8
  store ptr %0, ptr %2, align 8
  %3 = load ptr, ptr %2, align 8
  %4 = getelementptr inbounds %struct.list_head, ptr %3, i32 0, i32 1
  %5 = load ptr, ptr %4, align 8
  %6 = load ptr, ptr %2, align 8
  %7 = icmp eq ptr %5, %6
  %8 = zext i1 %7 to i32
  ret i32 %8
}

; Function Attrs: nounwind uwtable
define internal void @js_sab_dup(ptr noundef %0, ptr noundef %1) #0 {
  %3 = alloca ptr, align 8
  %4 = alloca ptr, align 8
  %5 = alloca ptr, align 8
  store ptr %0, ptr %3, align 8
  store ptr %1, ptr %4, align 8
  %6 = load ptr, ptr %4, align 8
  %7 = getelementptr i8, ptr %6, i64 -8
  store ptr %7, ptr %5, align 8
  %8 = load ptr, ptr %5, align 8
  %9 = getelementptr inbounds %struct.JSSABHeader, ptr %8, i32 0, i32 0
  %10 = call i32 @atomic_add_int(ptr noundef %9, i32 noundef 1)
  ret void
}

; Function Attrs: nounwind uwtable
define internal { i64, i64 } @js_worker_postMessage(ptr noundef %0, i64 %1, i64 %2, i32 noundef %3, ptr noundef %4) #0 {
  %6 = alloca %struct.JSValue, align 8
  %7 = alloca %struct.JSValue, align 8
  %8 = alloca ptr, align 8
  %9 = alloca i32, align 4
  %10 = alloca ptr, align 8
  %11 = alloca ptr, align 8
  %12 = alloca ptr, align 8
  %13 = alloca i64, align 8
  %14 = alloca i64, align 8
  %15 = alloca i64, align 8
  %16 = alloca ptr, align 8
  %17 = alloca ptr, align 8
  %18 = alloca ptr, align 8
  %19 = alloca i8, align 1
  %20 = alloca i32, align 4
  %21 = getelementptr inbounds { i64, i64 }, ptr %7, i32 0, i32 0
  store i64 %1, ptr %21, align 8
  %22 = getelementptr inbounds { i64, i64 }, ptr %7, i32 0, i32 1
  store i64 %2, ptr %22, align 8
  store ptr %0, ptr %8, align 8
  store i32 %3, ptr %9, align 4
  store ptr %4, ptr %10, align 8
  %23 = load ptr, ptr %8, align 8
  %24 = load i32, ptr @js_worker_class_id, align 4
  %25 = getelementptr inbounds { i64, i64 }, ptr %7, i32 0, i32 0
  %26 = load i64, ptr %25, align 8
  %27 = getelementptr inbounds { i64, i64 }, ptr %7, i32 0, i32 1
  %28 = load i64, ptr %27, align 8
  %29 = call ptr @JS_GetOpaque2(ptr noundef %23, i64 %26, i64 %28, i32 noundef %24)
  store ptr %29, ptr %11, align 8
  %30 = load ptr, ptr %11, align 8
  %31 = icmp ne ptr %30, null
  br i1 %31, label %35, label %32

32:                                               ; preds = %5
  %33 = getelementptr inbounds %struct.JSValue, ptr %6, i32 0, i32 0
  store i32 0, ptr %33, align 8
  %34 = getelementptr inbounds %struct.JSValue, ptr %6, i32 0, i32 1
  store i64 6, ptr %34, align 8
  br label %180

35:                                               ; preds = %5
  %36 = load ptr, ptr %8, align 8
  %37 = load ptr, ptr %10, align 8
  %38 = getelementptr %struct.JSValue, ptr %37, i64 0
  %39 = getelementptr inbounds { i64, i64 }, ptr %38, i32 0, i32 0
  %40 = load i64, ptr %39, align 8
  %41 = getelementptr inbounds { i64, i64 }, ptr %38, i32 0, i32 1
  %42 = load i64, ptr %41, align 8
  %43 = call ptr @JS_WriteObject2(ptr noundef %36, ptr noundef %13, i64 %40, i64 %42, i32 noundef 12, ptr noundef %18, ptr noundef %14)
  store ptr %43, ptr %16, align 8
  %44 = load ptr, ptr %16, align 8
  %45 = icmp ne ptr %44, null
  br i1 %45, label %49, label %46

46:                                               ; preds = %35
  %47 = getelementptr inbounds %struct.JSValue, ptr %6, i32 0, i32 0
  store i32 0, ptr %47, align 8
  %48 = getelementptr inbounds %struct.JSValue, ptr %6, i32 0, i32 1
  store i64 6, ptr %48, align 8
  br label %180

49:                                               ; preds = %35
  %50 = call noalias ptr @malloc(i64 noundef 48) #11
  store ptr %50, ptr %17, align 8
  %51 = load ptr, ptr %17, align 8
  %52 = icmp ne ptr %51, null
  br i1 %52, label %54, label %53

53:                                               ; preds = %49
  br label %162

54:                                               ; preds = %49
  %55 = load ptr, ptr %17, align 8
  %56 = getelementptr inbounds %struct.JSWorkerMessage, ptr %55, i32 0, i32 1
  store ptr null, ptr %56, align 8
  %57 = load ptr, ptr %17, align 8
  %58 = getelementptr inbounds %struct.JSWorkerMessage, ptr %57, i32 0, i32 3
  store ptr null, ptr %58, align 8
  %59 = load i64, ptr %13, align 8
  %60 = call noalias ptr @malloc(i64 noundef %59) #11
  %61 = load ptr, ptr %17, align 8
  %62 = getelementptr inbounds %struct.JSWorkerMessage, ptr %61, i32 0, i32 1
  store ptr %60, ptr %62, align 8
  %63 = load ptr, ptr %17, align 8
  %64 = getelementptr inbounds %struct.JSWorkerMessage, ptr %63, i32 0, i32 1
  %65 = load ptr, ptr %64, align 8
  %66 = icmp ne ptr %65, null
  br i1 %66, label %68, label %67

67:                                               ; preds = %54
  br label %162

68:                                               ; preds = %54
  %69 = load ptr, ptr %17, align 8
  %70 = getelementptr inbounds %struct.JSWorkerMessage, ptr %69, i32 0, i32 1
  %71 = load ptr, ptr %70, align 8
  %72 = load ptr, ptr %16, align 8
  %73 = load i64, ptr %13, align 8
  call void @llvm.memcpy.p0.p0.i64(ptr align 1 %71, ptr align 1 %72, i64 %73, i1 false)
  %74 = load i64, ptr %13, align 8
  %75 = load ptr, ptr %17, align 8
  %76 = getelementptr inbounds %struct.JSWorkerMessage, ptr %75, i32 0, i32 2
  store i64 %74, ptr %76, align 8
  %77 = load i64, ptr %14, align 8
  %78 = mul i64 8, %77
  %79 = call noalias ptr @malloc(i64 noundef %78) #11
  %80 = load ptr, ptr %17, align 8
  %81 = getelementptr inbounds %struct.JSWorkerMessage, ptr %80, i32 0, i32 3
  store ptr %79, ptr %81, align 8
  %82 = load ptr, ptr %17, align 8
  %83 = getelementptr inbounds %struct.JSWorkerMessage, ptr %82, i32 0, i32 3
  %84 = load ptr, ptr %83, align 8
  %85 = icmp ne ptr %84, null
  br i1 %85, label %87, label %86

86:                                               ; preds = %68
  br label %162

87:                                               ; preds = %68
  %88 = load ptr, ptr %17, align 8
  %89 = getelementptr inbounds %struct.JSWorkerMessage, ptr %88, i32 0, i32 3
  %90 = load ptr, ptr %89, align 8
  %91 = load ptr, ptr %18, align 8
  %92 = load i64, ptr %14, align 8
  %93 = mul i64 8, %92
  call void @llvm.memcpy.p0.p0.i64(ptr align 8 %90, ptr align 8 %91, i64 %93, i1 false)
  %94 = load i64, ptr %14, align 8
  %95 = load ptr, ptr %17, align 8
  %96 = getelementptr inbounds %struct.JSWorkerMessage, ptr %95, i32 0, i32 4
  store i64 %94, ptr %96, align 8
  %97 = load ptr, ptr %8, align 8
  %98 = load ptr, ptr %16, align 8
  call void @js_free(ptr noundef %97, ptr noundef %98)
  %99 = load ptr, ptr %8, align 8
  %100 = load ptr, ptr %18, align 8
  call void @js_free(ptr noundef %99, ptr noundef %100)
  store i64 0, ptr %15, align 8
  br label %101

101:                                              ; preds = %114, %87
  %102 = load i64, ptr %15, align 8
  %103 = load ptr, ptr %17, align 8
  %104 = getelementptr inbounds %struct.JSWorkerMessage, ptr %103, i32 0, i32 4
  %105 = load i64, ptr %104, align 8
  %106 = icmp ult i64 %102, %105
  br i1 %106, label %107, label %117

107:                                              ; preds = %101
  %108 = load ptr, ptr %17, align 8
  %109 = getelementptr inbounds %struct.JSWorkerMessage, ptr %108, i32 0, i32 3
  %110 = load ptr, ptr %109, align 8
  %111 = load i64, ptr %15, align 8
  %112 = getelementptr ptr, ptr %110, i64 %111
  %113 = load ptr, ptr %112, align 8
  call void @js_sab_dup(ptr noundef null, ptr noundef %113)
  br label %114

114:                                              ; preds = %107
  %115 = load i64, ptr %15, align 8
  %116 = add i64 %115, 1
  store i64 %116, ptr %15, align 8
  br label %101, !llvm.loop !34

117:                                              ; preds = %101
  %118 = load ptr, ptr %11, align 8
  %119 = getelementptr inbounds %struct.JSWorkerData, ptr %118, i32 0, i32 1
  %120 = load ptr, ptr %119, align 8
  store ptr %120, ptr %12, align 8
  %121 = load ptr, ptr %12, align 8
  %122 = getelementptr inbounds %struct.JSWorkerMessagePipe, ptr %121, i32 0, i32 1
  %123 = call i32 @pthread_mutex_lock(ptr noundef %122) #12
  %124 = load ptr, ptr %12, align 8
  %125 = getelementptr inbounds %struct.JSWorkerMessagePipe, ptr %124, i32 0, i32 2
  %126 = call i32 @list_empty(ptr noundef %125)
  %127 = icmp ne i32 %126, 0
  br i1 %127, label %128, label %152

128:                                              ; preds = %117
  store i8 0, ptr %19, align 1
  br label %129

129:                                              ; preds = %150, %128
  %130 = load ptr, ptr %12, align 8
  %131 = getelementptr inbounds %struct.JSWorkerMessagePipe, ptr %130, i32 0, i32 4
  %132 = load i32, ptr %131, align 4
  %133 = call i64 @write(i32 noundef %132, ptr noundef %19, i64 noundef 1)
  %134 = trunc i64 %133 to i32
  store i32 %134, ptr %20, align 4
  %135 = load i32, ptr %20, align 4
  %136 = icmp eq i32 %135, 1
  br i1 %136, label %137, label %138

137:                                              ; preds = %129
  br label %151

138:                                              ; preds = %129
  %139 = load i32, ptr %20, align 4
  %140 = icmp slt i32 %139, 0
  br i1 %140, label %141, label %150

141:                                              ; preds = %138
  %142 = call ptr @__errno_location() #10
  %143 = load i32, ptr %142, align 4
  %144 = icmp ne i32 %143, 11
  br i1 %144, label %149, label %145

145:                                              ; preds = %141
  %146 = call ptr @__errno_location() #10
  %147 = load i32, ptr %146, align 4
  %148 = icmp ne i32 %147, 4
  br i1 %148, label %149, label %150

149:                                              ; preds = %145, %141
  br label %151

150:                                              ; preds = %145, %138
  br label %129

151:                                              ; preds = %149, %137
  br label %152

152:                                              ; preds = %151, %117
  %153 = load ptr, ptr %17, align 8
  %154 = getelementptr inbounds %struct.JSWorkerMessage, ptr %153, i32 0, i32 0
  %155 = load ptr, ptr %12, align 8
  %156 = getelementptr inbounds %struct.JSWorkerMessagePipe, ptr %155, i32 0, i32 2
  call void @list_add_tail(ptr noundef %154, ptr noundef %156)
  %157 = load ptr, ptr %12, align 8
  %158 = getelementptr inbounds %struct.JSWorkerMessagePipe, ptr %157, i32 0, i32 1
  %159 = call i32 @pthread_mutex_unlock(ptr noundef %158) #12
  %160 = getelementptr inbounds %struct.JSValue, ptr %6, i32 0, i32 0
  store i32 0, ptr %160, align 8
  %161 = getelementptr inbounds %struct.JSValue, ptr %6, i32 0, i32 1
  store i64 3, ptr %161, align 8
  br label %180

162:                                              ; preds = %86, %67, %53
  %163 = load ptr, ptr %17, align 8
  %164 = icmp ne ptr %163, null
  br i1 %164, label %165, label %173

165:                                              ; preds = %162
  %166 = load ptr, ptr %17, align 8
  %167 = getelementptr inbounds %struct.JSWorkerMessage, ptr %166, i32 0, i32 1
  %168 = load ptr, ptr %167, align 8
  call void @free(ptr noundef %168) #12
  %169 = load ptr, ptr %17, align 8
  %170 = getelementptr inbounds %struct.JSWorkerMessage, ptr %169, i32 0, i32 3
  %171 = load ptr, ptr %170, align 8
  call void @free(ptr noundef %171) #12
  %172 = load ptr, ptr %17, align 8
  call void @free(ptr noundef %172) #12
  br label %173

173:                                              ; preds = %165, %162
  %174 = load ptr, ptr %8, align 8
  %175 = load ptr, ptr %16, align 8
  call void @js_free(ptr noundef %174, ptr noundef %175)
  %176 = load ptr, ptr %8, align 8
  %177 = load ptr, ptr %18, align 8
  call void @js_free(ptr noundef %176, ptr noundef %177)
  %178 = getelementptr inbounds %struct.JSValue, ptr %6, i32 0, i32 0
  store i32 0, ptr %178, align 8
  %179 = getelementptr inbounds %struct.JSValue, ptr %6, i32 0, i32 1
  store i64 6, ptr %179, align 8
  br label %180

180:                                              ; preds = %173, %152, %46, %32
  %181 = load { i64, i64 }, ptr %6, align 8
  ret { i64, i64 } %181
}