; Function Attrs: nounwind uwtable
define internal { i64, i64 } @js_worker_postMessage(ptr noundef %0, i64 %1, i64 %2, i32 %3, ptr nocapture noundef readonly %4) #0 {
  %6 = alloca i64, align 8
  %7 = alloca i64, align 8
  %8 = alloca ptr, align 8
  %9 = alloca i8, align 1
  %10 = load i32, ptr @js_worker_class_id, align 4
  %11 = tail call ptr @JS_GetOpaque2(ptr noundef %0, i64 %1, i64 %2, i32 noundef %10) #29
  %.not = icmp eq ptr %11, null
  br i1 %.not, label %62, label %12

12:                                               ; preds = %5
  %13 = load i64, ptr %4, align 8
  %14 = getelementptr inbounds i8, ptr %4, i64 8
  %15 = load i64, ptr %14, align 8
  %16 = call ptr @JS_WriteObject2(ptr noundef %0, ptr noundef nonnull %6, i64 %13, i64 %15, i32 noundef 12, ptr noundef nonnull %8, ptr noundef nonnull %7) #29
  %.not50 = icmp eq ptr %16, null
  br i1 %.not50, label %62, label %17

17:                                               ; preds = %12
  %18 = call noalias dereferenceable_or_null(48) ptr @malloc(i64 noundef 48) #30
  %.not51 = icmp eq ptr %18, null
  br i1 %.not51, label %.critedge, label %19

19:                                               ; preds = %17
  %20 = getelementptr inbounds i8, ptr %18, i64 16
  %21 = getelementptr inbounds i8, ptr %18, i64 32
  store ptr null, ptr %21, align 8
  %22 = load i64, ptr %6, align 8
  %23 = call noalias ptr @malloc(i64 noundef %22) #30
  store ptr %23, ptr %20, align 8
  %.not52 = icmp eq ptr %23, null
  br i1 %.not52, label %60, label %24

24:                                               ; preds = %19
  call void @llvm.memcpy.p0.p0.i64(ptr nonnull align 1 %23, ptr nonnull align 1 %16, i64 %22, i1 false)
  %25 = getelementptr inbounds i8, ptr %18, i64 24
  store i64 %22, ptr %25, align 8
  %26 = load i64, ptr %7, align 8
  %27 = shl i64 %26, 3
  %28 = call noalias ptr @malloc(i64 noundef %27) #30
  store ptr %28, ptr %21, align 8
  %.not53 = icmp eq ptr %28, null
  br i1 %.not53, label %60, label %29

29:                                               ; preds = %24
  %30 = load ptr, ptr %8, align 8
  call void @llvm.memcpy.p0.p0.i64(ptr nonnull align 8 %28, ptr align 8 %30, i64 %27, i1 false)
  %31 = getelementptr inbounds i8, ptr %18, i64 40
  store i64 %26, ptr %31, align 8
  call void @js_free(ptr noundef %0, ptr noundef nonnull %16) #29
  %32 = load ptr, ptr %8, align 8
  call void @js_free(ptr noundef %0, ptr noundef %32) #29
  %.not58 = icmp eq i64 %26, 0
  br i1 %.not58, label %._crit_edge, label %.lr.ph

.lr.ph:                                           ; preds = %29, %.lr.ph
  %.057 = phi i64 [ %38, %.lr.ph ], [ 0, %29 ]
  %33 = load ptr, ptr %21, align 8
  %34 = getelementptr ptr, ptr %33, i64 %.057
  %35 = load ptr, ptr %34, align 8
  %36 = getelementptr i8, ptr %35, i64 -8
  %37 = atomicrmw add ptr %36, i32 1 seq_cst, align 4
  %38 = add nuw i64 %.057, 1
  %39 = load i64, ptr %31, align 8
  %40 = icmp ult i64 %38, %39
  br i1 %40, label %.lr.ph, label %._crit_edge, !llvm.loop !34

._crit_edge:                                      ; preds = %.lr.ph, %29
  %41 = getelementptr inbounds i8, ptr %11, i64 8
  %42 = load ptr, ptr %41, align 8
  %43 = getelementptr inbounds i8, ptr %42, i64 8
  %44 = call i32 @pthread_mutex_lock(ptr noundef nonnull %43) #29
  %45 = getelementptr inbounds i8, ptr %42, i64 48
  %46 = getelementptr inbounds i8, ptr %42, i64 56
  %47 = load ptr, ptr %46, align 8
  %.not56 = icmp eq ptr %47, %45
  br i1 %.not56, label %48, label %.loopexit

48:                                               ; preds = %._crit_edge
  store i8 0, ptr %9, align 1
  %49 = getelementptr inbounds i8, ptr %42, i64 68
  br label %50

50:                                               ; preds = %50, %48
  %51 = load i32, ptr %49, align 4
  %52 = call i64 @write(i32 noundef %51, ptr noundef nonnull %9, i64 noundef 1) #29
  %53 = trunc i64 %52 to i32
  %54 = icmp eq i32 %53, 1
  %55 = icmp slt i32 %53, 0
  %or.cond = or i1 %54, %55
  br i1 %or.cond, label %.loopexit, label %50

.loopexit:                                        ; preds = %50, %._crit_edge
  %56 = load ptr, ptr %45, align 8
  %57 = getelementptr inbounds i8, ptr %56, i64 8
  store ptr %18, ptr %57, align 8
  store ptr %56, ptr %18, align 8
  %58 = getelementptr inbounds i8, ptr %18, i64 8
  store ptr %45, ptr %58, align 8
  store ptr %18, ptr %45, align 8
  %59 = call i32 @pthread_mutex_unlock(ptr noundef nonnull %43) #29
  br label %62

60:                                               ; preds = %19, %24
  call void @free(ptr noundef %23) #29
  call void @free(ptr noundef nonnull %18) #29
  br label %.critedge

.critedge:                                        ; preds = %17, %60
  call void @js_free(ptr noundef %0, ptr noundef nonnull %16) #29
  %61 = load ptr, ptr %8, align 8
  call void @js_free(ptr noundef %0, ptr noundef %61) #29
  br label %62

62:                                               ; preds = %12, %5, %.critedge, %.loopexit
  %.sroa.5.sroa.1.0 = phi i64 [ 3, %.loopexit ], [ 6, %.critedge ], [ 6, %5 ], [ 6, %12 ]
  %.fca.1.insert = insertvalue { i64, i64 } { i64 0, i64 poison }, i64 %.sroa.5.sroa.1.0, 1
  ret { i64, i64 } %.fca.1.insert
}